; Function Attrs: nounwind uwtable
define ptr @l_Lean_MonadCacheT_run___rarg(ptr noundef %0, ptr noundef %1, ptr readnone captures(none) %2, ptr noundef %3) #0 {
  %5 = getelementptr inbounds nuw i8, ptr %1, i64 16
  %6 = load ptr, ptr %5, align 8, !tbaa !4
  %7 = ptrtoint ptr %6 to i64
  %8 = and i64 %7, 1
  %.not = icmp eq i64 %8, 0
  br i1 %.not, label %9, label %lean_inc.exit28

9:                                                ; preds = %4
  %.val.i = load i32, ptr %6, align 4, !tbaa !8
  %10 = icmp sgt i32 %.val.i, 0
  br i1 %10, label %11, label %13, !prof !11

11:                                               ; preds = %9
  %12 = add nuw i32 %.val.i, 1
  store i32 %12, ptr %6, align 4, !tbaa !8
  br label %lean_inc.exit28

13:                                               ; preds = %9
  %.not.i = icmp eq i32 %.val.i, 0
  br i1 %.not.i, label %lean_inc.exit28, label %14

14:                                               ; preds = %13
  tail call void @lean_inc_ref_cold(ptr noundef nonnull %6) #4
  br label %lean_inc.exit28

lean_inc.exit28:                                  ; preds = %14, %13, %11, %4
  %15 = load ptr, ptr @l_Lean_MonadCacheT_run___rarg___closed__4, align 8, !tbaa !4
  %16 = ptrtoint ptr %0 to i64
  %17 = and i64 %16, 1
  %.not42 = icmp eq i64 %17, 0
  br i1 %.not42, label %18, label %lean_inc.exit27

18:                                               ; preds = %lean_inc.exit28
  %.val.i29 = load i32, ptr %0, align 4, !tbaa !8
  %19 = icmp sgt i32 %.val.i29, 0
  br i1 %19, label %20, label %22, !prof !11

20:                                               ; preds = %18
  %21 = add nuw i32 %.val.i29, 1
  store i32 %21, ptr %0, align 4, !tbaa !8
  br label %lean_inc.exit27

22:                                               ; preds = %18
  %.not.i30 = icmp eq i32 %.val.i29, 0
  br i1 %.not.i30, label %lean_inc.exit27, label %23

23:                                               ; preds = %22
  tail call void @lean_inc_ref_cold(ptr noundef nonnull %0) #4
  br label %lean_inc.exit27

lean_inc.exit27:                                  ; preds = %23, %22, %20, %lean_inc.exit28
  %24 = tail call ptr @lean_apply_2(ptr noundef %0, ptr noundef nonnull inttoptr (i64 1 to ptr), ptr noundef %15) #4
  br i1 %.not, label %25, label %lean_inc.exit26

25:                                               ; preds = %lean_inc.exit27
  %.val.i32 = load i32, ptr %6, align 4, !tbaa !8
  %26 = icmp sgt i32 %.val.i32, 0
  br i1 %26, label %27, label %29, !prof !11

27:                                               ; preds = %25
  %28 = add nuw i32 %.val.i32, 1
  store i32 %28, ptr %6, align 4, !tbaa !8
  br label %lean_inc.exit26

29:                                               ; preds = %25
  %.not.i33 = icmp eq i32 %.val.i32, 0
  br i1 %.not.i33, label %lean_inc.exit26, label %30

30:                                               ; preds = %29
  tail call void @lean_inc_ref_cold(ptr noundef nonnull %6) #4
  br label %lean_inc.exit26

lean_inc.exit26:                                  ; preds = %30, %29, %27, %lean_inc.exit27
  %31 = ptrtoint ptr %1 to i64
  %32 = and i64 %31, 1
  %.not43 = icmp eq i64 %32, 0
  br i1 %.not43, label %33, label %lean_inc.exit25

33:                                               ; preds = %lean_inc.exit26
  %.val.i35 = load i32, ptr %1, align 4, !tbaa !8
  %34 = icmp sgt i32 %.val.i35, 0
  br i1 %34, label %35, label %37, !prof !11

35:                                               ; preds = %33
  %36 = add nuw i32 %.val.i35, 1
  store i32 %36, ptr %1, align 4, !tbaa !8
  br label %lean_inc.exit25

37:                                               ; preds = %33
  %.not.i36 = icmp eq i32 %.val.i35, 0
  br i1 %.not.i36, label %lean_inc.exit25, label %38

38:                                               ; preds = %37
  tail call void @lean_inc_ref_cold(ptr noundef nonnull %1) #4
  br label %lean_inc.exit25

lean_inc.exit25:                                  ; preds = %38, %37, %35, %lean_inc.exit26
  tail call void @lean_inc_heartbeat() #4
  %39 = tail call noalias ptr @mi_malloc_small(i64 noundef 56) #4
  %40 = icmp eq ptr %39, null
  br i1 %40, label %41, label %lean_alloc_closure.exit

41:                                               ; preds = %lean_inc.exit25
  tail call void @lean_internal_panic_out_of_memory() #5
  unreachable

lean_alloc_closure.exit:                          ; preds = %lean_inc.exit25
  %42 = getelementptr inbounds nuw i8, ptr %39, i64 4
  store i32 1, ptr %39, align 4, !tbaa !8
  store i32 -184549320, ptr %42, align 4
  %43 = getelementptr inbounds nuw i8, ptr %39, i64 8
  store ptr @l_Lean_MonadCacheT_run___rarg___lambda__3, ptr %43, align 8, !tbaa !4
  %44 = getelementptr inbounds nuw i8, ptr %39, i64 16
  store i16 5, ptr %44, align 8, !tbaa !12
  %45 = getelementptr inbounds nuw i8, ptr %39, i64 18
  store i16 4, ptr %45, align 2, !tbaa !12
  %46 = getelementptr inbounds nuw i8, ptr %39, i64 24
  store ptr %3, ptr %46, align 8, !tbaa !4
  %47 = getelementptr inbounds nuw i8, ptr %39, i64 32
  store ptr %0, ptr %47, align 8, !tbaa !4
  %48 = getelementptr inbounds nuw i8, ptr %39, i64 40
  store ptr %1, ptr %48, align 8, !tbaa !4
  %49 = getelementptr inbounds nuw i8, ptr %39, i64 48
  store ptr %6, ptr %49, align 8, !tbaa !4
  br i1 %.not, label %50, label %lean_inc.exit

50:                                               ; preds = %lean_alloc_closure.exit
  %.val.i38 = load i32, ptr %6, align 4, !tbaa !8
  %51 = icmp sgt i32 %.val.i38, 0
  br i1 %51, label %52, label %54, !prof !11

52:                                               ; preds = %50
  %53 = add nuw i32 %.val.i38, 1
  store i32 %53, ptr %6, align 4, !tbaa !8
  br label %lean_inc.exit

54:                                               ; preds = %50
  %.not.i39 = icmp eq i32 %.val.i38, 0
  br i1 %.not.i39, label %lean_inc.exit, label %55

55:                                               ; preds = %54
  tail call void @lean_inc_ref_cold(ptr noundef nonnull %6) #4
  br label %lean_inc.exit

lean_inc.exit:                                    ; preds = %55, %54, %52, %lean_alloc_closure.exit
  %56 = tail call ptr @lean_apply_4(ptr noundef %6, ptr noundef nonnull inttoptr (i64 1 to ptr), ptr noundef nonnull inttoptr (i64 1 to ptr), ptr noundef %24, ptr noundef nonnull %39) #4
  tail call void @lean_inc_heartbeat() #4
  %57 = tail call noalias ptr @mi_malloc_small(i64 noundef 32) #4
  %58 = icmp eq ptr %57, null
  br i1 %58, label %59, label %lean_alloc_closure.exit41

59:                                               ; preds = %lean_inc.exit
  tail call void @lean_internal_panic_out_of_memory() #5
  unreachable

lean_alloc_closure.exit41:                        ; preds = %lean_inc.exit
  %60 = getelementptr inbounds nuw i8, ptr %57, i64 4
  store i32 1, ptr %57, align 4, !tbaa !8
  store i32 -184549344, ptr %60, align 4
  %61 = getelementptr inbounds nuw i8, ptr %57, i64 8
  store ptr @l_Lean_MonadCacheT_run___rarg___lambda__4, ptr %61, align 8, !tbaa !4
  %62 = getelementptr inbounds nuw i8, ptr %57, i64 16
  store i16 2, ptr %62, align 8, !tbaa !12
  %63 = getelementptr inbounds nuw i8, ptr %57, i64 18
  store i16 1, ptr %63, align 2, !tbaa !12
  %64 = getelementptr inbounds nuw i8, ptr %57, i64 24
  store ptr %1, ptr %64, align 8, !tbaa !4
  %65 = tail call ptr @lean_apply_4(ptr noundef %6, ptr noundef nonnull inttoptr (i64 1 to ptr), ptr noundef nonnull inttoptr (i64 1 to ptr), ptr noundef %56, ptr noundef nonnull %57) #4
  ret ptr %65
}